target datalayout = "e-m:e-p270:32:32-p271:32:32-p272:64:64-i64:64-i128:128-f80:128-n8:16:32:64-S128"
target triple = "x86_64-pc-linux-gnu"

%struct.Param = type { %struct.Expr, i32, i32, i32, i32, i32, i32 }
%struct.Expr = type { i32 }
%struct.Var = type { %struct.Expr, i32, i16, i32, i32, i32, ptr, i32, i32, i32, i16, i32 }
%struct.ForEachState = type { ptr, i32 }
%struct.PlannerInfo = type { i32, ptr, ptr, i32, ptr, ptr, ptr, ptr, i32, ptr, ptr, ptr, ptr, ptr, ptr, ptr, ptr, i32, ptr, ptr, ptr, ptr, ptr, i8, ptr, ptr, ptr, ptr, ptr, i32, ptr, ptr, ptr, ptr, ptr, ptr, ptr, i32, ptr, ptr, ptr, i32, ptr, ptr, ptr, ptr, ptr, ptr, [8 x ptr], [8 x ptr], ptr, ptr, ptr, ptr, ptr, ptr, ptr, double, double, double, i32, i8, i8, i8, i8, i8, i8, i8, i32, ptr, ptr, i32, i8, i8, i32, ptr, ptr, ptr, ptr, ptr, ptr, i8, ptr }
%struct.List = type { i32, i32, i32, ptr, [0 x %union.ListCell] }
%union.ListCell = type { ptr }
%struct.PlannerParamItem = type { i32, ptr, i32 }
%struct.Node = type { i32 }
%struct.PlannerGlobal = type { i32, ptr, ptr, ptr, ptr, ptr, ptr, ptr, ptr, ptr, ptr, ptr, ptr, ptr, ptr, ptr, ptr, i32, i32, i32, i8, i8, i8, i8, i8, ptr }

; Function Attrs: inlinehint nounwind uwtable
define internal i32 @list_length(ptr noundef %0) #2 {
  %2 = alloca ptr, align 8
  store ptr %0, ptr %2, align 8
  %3 = load ptr, ptr %2, align 8
  %4 = icmp ne ptr %3, null
  br i1 %4, label %5, label %9

5:                                                ; preds = %1
  %6 = load ptr, ptr %2, align 8
  %7 = getelementptr inbounds nuw %struct.List, ptr %6, i32 0, i32 1
  %8 = load i32, ptr %7, align 4
  br label %10

9:                                                ; preds = %1
  br label %10

10:                                               ; preds = %9, %5
  %11 = phi i32 [ %8, %5 ], [ 0, %9 ]
  ret i32 %11
}

; Function Attrs: inlinehint nounwind uwtable
define internal ptr @newNode(i64 noundef %0, i32 noundef %1) #2 {
  %3 = alloca i64, align 8
  %4 = alloca i32, align 4
  %5 = alloca ptr, align 8
  store i64 %0, ptr %3, align 8
  store i32 %1, ptr %4, align 4
  call void @llvm.lifetime.start.p0(i64 8, ptr %5) #6
  %6 = load i64, ptr %3, align 8
  %7 = call ptr @palloc0(i64 noundef %6)
  store ptr %7, ptr %5, align 8
  %8 = load i32, ptr %4, align 4
  %9 = load ptr, ptr %5, align 8
  %10 = getelementptr inbounds nuw %struct.Node, ptr %9, i32 0, i32 0
  store i32 %8, ptr %10, align 4
  %11 = load ptr, ptr %5, align 8
  call void @llvm.lifetime.end.p0(i64 8, ptr %5) #6
  ret ptr %11
}

; Function Attrs: nounwind uwtable
define internal i32 @assign_param_for_var(ptr noundef %0, ptr noundef %1) #0 {
  %3 = alloca i32, align 4
  %4 = alloca ptr, align 8
  %5 = alloca ptr, align 8
  %6 = alloca ptr, align 8
  %7 = alloca ptr, align 8
  %8 = alloca i32, align 4
  %9 = alloca %struct.ForEachState, align 8
  %10 = alloca i32, align 4
  %11 = alloca ptr, align 8
  store ptr %0, ptr %4, align 8
  store ptr %1, ptr %5, align 8
  call void @llvm.lifetime.start.p0(i64 8, ptr %6) #6
  call void @llvm.lifetime.start.p0(i64 8, ptr %7) #6
  call void @llvm.lifetime.start.p0(i64 4, ptr %8) #6
  %12 = load ptr, ptr %5, align 8
  %13 = getelementptr inbounds nuw %struct.Var, ptr %12, i32 0, i32 7
  %14 = load i32, ptr %13, align 8
  store i32 %14, ptr %8, align 4
  br label %15

15:                                               ; preds = %22, %2
  %16 = load i32, ptr %8, align 4
  %17 = icmp ugt i32 %16, 0
  br i1 %17, label %18, label %25

18:                                               ; preds = %15
  %19 = load ptr, ptr %4, align 8
  %20 = getelementptr inbounds nuw %struct.PlannerInfo, ptr %19, i32 0, i32 4
  %21 = load ptr, ptr %20, align 8
  store ptr %21, ptr %4, align 8
  br label %22

22:                                               ; preds = %18
  %23 = load i32, ptr %8, align 4
  %24 = add i32 %23, -1
  store i32 %24, ptr %8, align 4
  br label %15, !llvm.loop !4

25:                                               ; preds = %15
  call void @llvm.lifetime.start.p0(i64 16, ptr %9) #6
  %26 = getelementptr inbounds nuw %struct.ForEachState, ptr %9, i32 0, i32 0
  %27 = load ptr, ptr %4, align 8
  %28 = getelementptr inbounds nuw %struct.PlannerInfo, ptr %27, i32 0, i32 5
  %29 = load ptr, ptr %28, align 8
  store ptr %29, ptr %26, align 8
  %30 = getelementptr inbounds nuw %struct.ForEachState, ptr %9, i32 0, i32 1
  store i32 0, ptr %30, align 8
  %31 = getelementptr i8, ptr %9, i64 12
  call void @llvm.memset.p0.i64(ptr align 4 %31, i8 0, i64 4, i1 false)
  br label %32

32:                                               ; preds = %137, %25
  %33 = getelementptr inbounds nuw %struct.ForEachState, ptr %9, i32 0, i32 0
  %34 = load ptr, ptr %33, align 8
  %35 = icmp ne ptr %34, null
  br i1 %35, label %36, label %53

36:                                               ; preds = %32
  %37 = getelementptr inbounds nuw %struct.ForEachState, ptr %9, i32 0, i32 1
  %38 = load i32, ptr %37, align 8
  %39 = getelementptr inbounds nuw %struct.ForEachState, ptr %9, i32 0, i32 0
  %40 = load ptr, ptr %39, align 8
  %41 = getelementptr inbounds nuw %struct.List, ptr %40, i32 0, i32 1
  %42 = load i32, ptr %41, align 4
  %43 = icmp slt i32 %38, %42
  br i1 %43, label %44, label %53

44:                                               ; preds = %36
  %45 = getelementptr inbounds nuw %struct.ForEachState, ptr %9, i32 0, i32 0
  %46 = load ptr, ptr %45, align 8
  %47 = getelementptr inbounds nuw %struct.List, ptr %46, i32 0, i32 3
  %48 = load ptr, ptr %47, align 8
  %49 = getelementptr inbounds nuw %struct.ForEachState, ptr %9, i32 0, i32 1
  %50 = load i32, ptr %49, align 8
  %51 = sext i32 %50 to i64
  %52 = getelementptr inbounds %union.ListCell, ptr %48, i64 %51
  store ptr %52, ptr %6, align 8
  br label %54

53:                                               ; preds = %36, %32
  store ptr null, ptr %6, align 8
  br label %54

54:                                               ; preds = %53, %44
  %55 = phi i32 [ 1, %44 ], [ 0, %53 ]
  %56 = icmp ne i32 %55, 0
  br i1 %56, label %58, label %57

57:                                               ; preds = %54
  store i32 5, ptr %10, align 4
  br label %141

58:                                               ; preds = %54
  %59 = load ptr, ptr %6, align 8
  %60 = load ptr, ptr %59, align 8
  store ptr %60, ptr %7, align 8
  %61 = load ptr, ptr %7, align 8
  %62 = getelementptr inbounds nuw %struct.PlannerParamItem, ptr %61, i32 0, i32 1
  %63 = load ptr, ptr %62, align 8
  %64 = getelementptr inbounds nuw %struct.Node, ptr %63, i32 0, i32 0
  %65 = load i32, ptr %64, align 4
  %66 = icmp eq i32 %65, 6
  br i1 %66, label %67, label %136

67:                                               ; preds = %58
  call void @llvm.lifetime.start.p0(i64 8, ptr %11) #6
  %68 = load ptr, ptr %7, align 8
  %69 = getelementptr inbounds nuw %struct.PlannerParamItem, ptr %68, i32 0, i32 1
  %70 = load ptr, ptr %69, align 8
  store ptr %70, ptr %11, align 8
  %71 = load ptr, ptr %11, align 8
  %72 = getelementptr inbounds nuw %struct.Var, ptr %71, i32 0, i32 1
  %73 = load i32, ptr %72, align 4
  %74 = load ptr, ptr %5, align 8
  %75 = getelementptr inbounds nuw %struct.Var, ptr %74, i32 0, i32 1
  %76 = load i32, ptr %75, align 4
  %77 = icmp eq i32 %73, %76
  br i1 %77, label %78, label %132

78:                                               ; preds = %67
  %79 = load ptr, ptr %11, align 8
  %80 = getelementptr inbounds nuw %struct.Var, ptr %79, i32 0, i32 2
  %81 = load i16, ptr %80, align 8
  %82 = sext i16 %81 to i32
  %83 = load ptr, ptr %5, align 8
  %84 = getelementptr inbounds nuw %struct.Var, ptr %83, i32 0, i32 2
  %85 = load i16, ptr %84, align 8
  %86 = sext i16 %85 to i32
  %87 = icmp eq i32 %82, %86
  br i1 %87, label %88, label %132

88:                                               ; preds = %78
  %89 = load ptr, ptr %11, align 8
  %90 = getelementptr inbounds nuw %struct.Var, ptr %89, i32 0, i32 3
  %91 = load i32, ptr %90, align 4
  %92 = load ptr, ptr %5, align 8
  %93 = getelementptr inbounds nuw %struct.Var, ptr %92, i32 0, i32 3
  %94 = load i32, ptr %93, align 4
  %95 = icmp eq i32 %91, %94
  br i1 %95, label %96, label %132

96:                                               ; preds = %88
  %97 = load ptr, ptr %11, align 8
  %98 = getelementptr inbounds nuw %struct.Var, ptr %97, i32 0, i32 4
  %99 = load i32, ptr %98, align 8
  %100 = load ptr, ptr %5, align 8
  %101 = getelementptr inbounds nuw %struct.Var, ptr %100, i32 0, i32 4
  %102 = load i32, ptr %101, align 8
  %103 = icmp eq i32 %99, %102
  br i1 %103, label %104, label %132

104:                                              ; preds = %96
  %105 = load ptr, ptr %11, align 8
  %106 = getelementptr inbounds nuw %struct.Var, ptr %105, i32 0, i32 5
  %107 = load i32, ptr %106, align 4
  %108 = load ptr, ptr %5, align 8
  %109 = getelementptr inbounds nuw %struct.Var, ptr %108, i32 0, i32 5
  %110 = load i32, ptr %109, align 4
  %111 = icmp eq i32 %107, %110
  br i1 %111, label %112, label %132

112:                                              ; preds = %104
  %113 = load ptr, ptr %11, align 8
  %114 = getelementptr inbounds nuw %struct.Var, ptr %113, i32 0, i32 8
  %115 = load i32, ptr %114, align 4
  %116 = load ptr, ptr %5, align 8
  %117 = getelementptr inbounds nuw %struct.Var, ptr %116, i32 0, i32 8
  %118 = load i32, ptr %117, align 4
  %119 = icmp eq i32 %115, %118
  br i1 %119, label %120, label %132

120:                                              ; preds = %112
  %121 = load ptr, ptr %11, align 8
  %122 = getelementptr inbounds nuw %struct.Var, ptr %121, i32 0, i32 6
  %123 = load ptr, ptr %122, align 8
  %124 = load ptr, ptr %5, align 8
  %125 = getelementptr inbounds nuw %struct.Var, ptr %124, i32 0, i32 6
  %126 = load ptr, ptr %125, align 8
  %127 = call zeroext i1 @bms_equal(ptr noundef %123, ptr noundef %126)
  br i1 %127, label %128, label %132

128:                                              ; preds = %120
  %129 = load ptr, ptr %7, align 8
  %130 = getelementptr inbounds nuw %struct.PlannerParamItem, ptr %129, i32 0, i32 2
  %131 = load i32, ptr %130, align 8
  store i32 %131, ptr %3, align 4
  store i32 1, ptr %10, align 4
  br label %133

132:                                              ; preds = %120, %112, %104, %96, %88, %78, %67
  store i32 0, ptr %10, align 4
  br label %133

133:                                              ; preds = %132, %128
  call void @llvm.lifetime.end.p0(i64 8, ptr %11) #6
  %134 = load i32, ptr %10, align 4
  switch i32 %134, label %141 [
    i32 0, label %135
  ]

135:                                              ; preds = %133
  br label %136

136:                                              ; preds = %135, %58
  br label %137

137:                                              ; preds = %136
  %138 = getelementptr inbounds nuw %struct.ForEachState, ptr %9, i32 0, i32 1
  %139 = load i32, ptr %138, align 8
  %140 = add i32 %139, 1
  store i32 %140, ptr %138, align 8
  br label %32, !llvm.loop !6

141:                                              ; preds = %133, %57
  call void @llvm.lifetime.end.p0(i64 16, ptr %9) #6
  %142 = load i32, ptr %10, align 4
  switch i32 %142, label %183 [
    i32 5, label %143
  ]

143:                                              ; preds = %141
  %144 = load ptr, ptr %5, align 8
  %145 = call ptr @copyObjectImpl(ptr noundef %144)
  store ptr %145, ptr %5, align 8
  %146 = load ptr, ptr %5, align 8
  %147 = getelementptr inbounds nuw %struct.Var, ptr %146, i32 0, i32 7
  store i32 0, ptr %147, align 8
  %148 = call ptr @newNode(i64 noundef 24, i32 noundef 325)
  store ptr %148, ptr %7, align 8
  %149 = load ptr, ptr %5, align 8
  %150 = load ptr, ptr %7, align 8
  %151 = getelementptr inbounds nuw %struct.PlannerParamItem, ptr %150, i32 0, i32 1
  store ptr %149, ptr %151, align 8
  %152 = load ptr, ptr %4, align 8
  %153 = getelementptr inbounds nuw %struct.PlannerInfo, ptr %152, i32 0, i32 2
  %154 = load ptr, ptr %153, align 8
  %155 = getelementptr inbounds nuw %struct.PlannerGlobal, ptr %154, i32 0, i32 16
  %156 = load ptr, ptr %155, align 8
  %157 = call i32 @list_length(ptr noundef %156)
  %158 = load ptr, ptr %7, align 8
  %159 = getelementptr inbounds nuw %struct.PlannerParamItem, ptr %158, i32 0, i32 2
  store i32 %157, ptr %159, align 8
  %160 = load ptr, ptr %4, align 8
  %161 = getelementptr inbounds nuw %struct.PlannerInfo, ptr %160, i32 0, i32 2
  %162 = load ptr, ptr %161, align 8
  %163 = getelementptr inbounds nuw %struct.PlannerGlobal, ptr %162, i32 0, i32 16
  %164 = load ptr, ptr %163, align 8
  %165 = load ptr, ptr %5, align 8
  %166 = getelementptr inbounds nuw %struct.Var, ptr %165, i32 0, i32 3
  %167 = load i32, ptr %166, align 4
  %168 = call ptr @lappend_oid(ptr noundef %164, i32 noundef %167)
  %169 = load ptr, ptr %4, align 8
  %170 = getelementptr inbounds nuw %struct.PlannerInfo, ptr %169, i32 0, i32 2
  %171 = load ptr, ptr %170, align 8
  %172 = getelementptr inbounds nuw %struct.PlannerGlobal, ptr %171, i32 0, i32 16
  store ptr %168, ptr %172, align 8
  %173 = load ptr, ptr %4, align 8
  %174 = getelementptr inbounds nuw %struct.PlannerInfo, ptr %173, i32 0, i32 5
  %175 = load ptr, ptr %174, align 8
  %176 = load ptr, ptr %7, align 8
  %177 = call ptr @lappend(ptr noundef %175, ptr noundef %176)
  %178 = load ptr, ptr %4, align 8
  %179 = getelementptr inbounds nuw %struct.PlannerInfo, ptr %178, i32 0, i32 5
  store ptr %177, ptr %179, align 8
  %180 = load ptr, ptr %7, align 8
  %181 = getelementptr inbounds nuw %struct.PlannerParamItem, ptr %180, i32 0, i32 2
  %182 = load i32, ptr %181, align 8
  store i32 %182, ptr %3, align 4
  store i32 1, ptr %10, align 4
  br label %183

183:                                              ; preds = %143, %141
  call void @llvm.lifetime.end.p0(i64 4, ptr %8) #6
  call void @llvm.lifetime.end.p0(i64 8, ptr %7) #6
  call void @llvm.lifetime.end.p0(i64 8, ptr %6) #6
  %184 = load i32, ptr %3, align 4
  ret i32 %184
}

; Function Attrs: nounwind uwtable
define dso_local ptr @replace_outer_var(ptr noundef %0, ptr noundef %1) #0 {
  %3 = alloca ptr, align 8
  %4 = alloca ptr, align 8
  %5 = alloca ptr, align 8
  %6 = alloca i32, align 4
  store ptr %0, ptr %3, align 8
  store ptr %1, ptr %4, align 8
  call void @llvm.lifetime.start.p0(i64 8, ptr %5) #6
  call void @llvm.lifetime.start.p0(i64 4, ptr %6) #6
  %7 = load ptr, ptr %3, align 8
  %8 = load ptr, ptr %4, align 8
  %9 = call i32 @assign_param_for_var(ptr noundef %7, ptr noundef %8)
  store i32 %9, ptr %6, align 4
  %10 = call ptr @newNode(i64 noundef 28, i32 noundef 8)
  store ptr %10, ptr %5, align 8
  %11 = load ptr, ptr %5, align 8
  %12 = getelementptr inbounds nuw %struct.Param, ptr %11, i32 0, i32 1
  store i32 1, ptr %12, align 4
  %13 = load i32, ptr %6, align 4
  %14 = load ptr, ptr %5, align 8
  %15 = getelementptr inbounds nuw %struct.Param, ptr %14, i32 0, i32 2
  store i32 %13, ptr %15, align 4
  %16 = load ptr, ptr %4, align 8
  %17 = getelementptr inbounds nuw %struct.Var, ptr %16, i32 0, i32 3
  %18 = load i32, ptr %17, align 4
  %19 = load ptr, ptr %5, align 8
  %20 = getelementptr inbounds nuw %struct.Param, ptr %19, i32 0, i32 3
  store i32 %18, ptr %20, align 4
  %21 = load ptr, ptr %4, align 8
  %22 = getelementptr inbounds nuw %struct.Var, ptr %21, i32 0, i32 4
  %23 = load i32, ptr %22, align 8
  %24 = load ptr, ptr %5, align 8
  %25 = getelementptr inbounds nuw %struct.Param, ptr %24, i32 0, i32 4
  store i32 %23, ptr %25, align 4
  %26 = load ptr, ptr %4, align 8
  %27 = getelementptr inbounds nuw %struct.Var, ptr %26, i32 0, i32 5
  %28 = load i32, ptr %27, align 4
  %29 = load ptr, ptr %5, align 8
  %30 = getelementptr inbounds nuw %struct.Param, ptr %29, i32 0, i32 5
  store i32 %28, ptr %30, align 4
  %31 = load ptr, ptr %4, align 8
  %32 = getelementptr inbounds nuw %struct.Var, ptr %31, i32 0, i32 11
  %33 = load i32, ptr %32, align 8
  %34 = load ptr, ptr %5, align 8
  %35 = getelementptr inbounds nuw %struct.Param, ptr %34, i32 0, i32 6
  store i32 %33, ptr %35, align 4
  %36 = load ptr, ptr %5, align 8
  call void @llvm.lifetime.end.p0(i64 4, ptr %6) #6
  call void @llvm.lifetime.end.p0(i64 8, ptr %5) #6
  ret ptr %36
}