; Function Attrs: nounwind uwtable
define dso_local noundef ptr @replace_outer_var(ptr noundef captures(none) %0, ptr noundef %1) local_unnamed_addr #0 {
  %3 = getelementptr inbounds nuw i8, ptr %1, i64 32
  %4 = load i32, ptr %3, align 8
  %.not61.i = icmp eq i32 %4, 0
  br i1 %.not61.i, label %._crit_edge.i, label %.lr.ph.i

.lr.ph.i:                                         ; preds = %2, %.lr.ph.i
  %.04563.i = phi ptr [ %6, %.lr.ph.i ], [ %0, %2 ]
  %.04662.i = phi i32 [ %7, %.lr.ph.i ], [ %4, %2 ]
  %5 = getelementptr inbounds nuw i8, ptr %.04563.i, i64 32
  %6 = load ptr, ptr %5, align 8
  %7 = add i32 %.04662.i, -1
  %.not.i = icmp eq i32 %7, 0
  br i1 %.not.i, label %._crit_edge.i, label %.lr.ph.i, !llvm.loop !4

._crit_edge.i:                                    ; preds = %.lr.ph.i, %2
  %.045.lcssa.i = phi ptr [ %0, %2 ], [ %6, %.lr.ph.i ]
  %8 = getelementptr inbounds nuw i8, ptr %.045.lcssa.i, i64 40
  %9 = load ptr, ptr %8, align 8
  %.not49.i = icmp eq ptr %9, null
  br i1 %.not49.i, label %._crit_edge67.i, label %.lr.ph66.i

.lr.ph66.i:                                       ; preds = %._crit_edge.i
  %10 = getelementptr inbounds nuw i8, ptr %9, i64 4
  %11 = getelementptr inbounds nuw i8, ptr %9, i64 16
  %12 = getelementptr inbounds nuw i8, ptr %1, i64 4
  %13 = getelementptr inbounds nuw i8, ptr %1, i64 8
  %14 = getelementptr inbounds nuw i8, ptr %1, i64 12
  %15 = getelementptr inbounds nuw i8, ptr %1, i64 16
  %16 = getelementptr inbounds nuw i8, ptr %1, i64 20
  %17 = getelementptr inbounds nuw i8, ptr %1, i64 36
  %18 = getelementptr inbounds nuw i8, ptr %1, i64 24
  %19 = load i32, ptr %10, align 4
  %20 = icmp sgt i32 %19, 0
  br i1 %20, label %.lr.ph70.i, label %._crit_edge67.i

.lr.ph70.i:                                       ; preds = %.lr.ph66.i, %.thread55.i
  %21 = phi i32 [ %64, %.thread55.i ], [ %19, %.lr.ph66.i ]
  %indvars.iv.i = phi i64 [ %indvars.iv.next.i, %.thread55.i ], [ 0, %.lr.ph66.i ]
  %22 = load ptr, ptr %11, align 8
  %23 = getelementptr inbounds nuw %union.ListCell, ptr %22, i64 %indvars.iv.i
  %24 = load ptr, ptr %23, align 8
  %25 = getelementptr inbounds nuw i8, ptr %24, i64 8
  %26 = load ptr, ptr %25, align 8
  %27 = load i32, ptr %26, align 4
  %28 = icmp eq i32 %27, 6
  br i1 %28, label %29, label %.thread55.i

29:                                               ; preds = %.lr.ph70.i
  %30 = getelementptr inbounds nuw i8, ptr %26, i64 4
  %31 = load i32, ptr %30, align 4
  %32 = load i32, ptr %12, align 4
  %33 = icmp eq i32 %31, %32
  br i1 %33, label %34, label %.thread55.i

34:                                               ; preds = %29
  %35 = getelementptr inbounds nuw i8, ptr %26, i64 8
  %36 = load i16, ptr %35, align 8
  %37 = load i16, ptr %13, align 8
  %38 = icmp eq i16 %36, %37
  br i1 %38, label %39, label %.thread55.i

39:                                               ; preds = %34
  %40 = getelementptr inbounds nuw i8, ptr %26, i64 12
  %41 = load i32, ptr %40, align 4
  %42 = load i32, ptr %14, align 4
  %43 = icmp eq i32 %41, %42
  br i1 %43, label %44, label %.thread55.i

44:                                               ; preds = %39
  %45 = getelementptr inbounds nuw i8, ptr %26, i64 16
  %46 = load i32, ptr %45, align 8
  %47 = load i32, ptr %15, align 8
  %48 = icmp eq i32 %46, %47
  br i1 %48, label %49, label %.thread55.i

49:                                               ; preds = %44
  %50 = getelementptr inbounds nuw i8, ptr %26, i64 20
  %51 = load i32, ptr %50, align 4
  %52 = load i32, ptr %16, align 4
  %53 = icmp eq i32 %51, %52
  br i1 %53, label %54, label %.thread55.i

54:                                               ; preds = %49
  %55 = getelementptr inbounds nuw i8, ptr %26, i64 36
  %56 = load i32, ptr %55, align 4
  %57 = load i32, ptr %17, align 4
  %58 = icmp eq i32 %56, %57
  br i1 %58, label %59, label %.thread55.i

59:                                               ; preds = %54
  %60 = getelementptr inbounds nuw i8, ptr %26, i64 24
  %61 = load ptr, ptr %60, align 8
  %62 = load ptr, ptr %18, align 8
  %63 = tail call zeroext i1 @bms_equal(ptr noundef %61, ptr noundef %62) #4
  br i1 %63, label %.split.i, label %..thread55_crit_edge.i

..thread55_crit_edge.i:                           ; preds = %59
  %.pre.i = load i32, ptr %10, align 4
  br label %.thread55.i

.thread55.i:                                      ; preds = %..thread55_crit_edge.i, %54, %49, %44, %39, %34, %29, %.lr.ph70.i
  %64 = phi i32 [ %.pre.i, %..thread55_crit_edge.i ], [ %21, %29 ], [ %21, %34 ], [ %21, %39 ], [ %21, %44 ], [ %21, %49 ], [ %21, %54 ], [ %21, %.lr.ph70.i ]
  %indvars.iv.next.i = add nuw nsw i64 %indvars.iv.i, 1
  %65 = sext i32 %64 to i64
  %66 = icmp slt i64 %indvars.iv.next.i, %65
  br i1 %66, label %.lr.ph70.i, label %._crit_edge67.i

.split.i:                                         ; preds = %59
  %67 = getelementptr inbounds nuw i8, ptr %24, i64 16
  br label %assign_param_for_var.exit

._crit_edge67.i:                                  ; preds = %.thread55.i, %.lr.ph66.i, %._crit_edge.i
  %68 = tail call ptr @copyObjectImpl(ptr noundef %1) #4
  %69 = getelementptr inbounds nuw i8, ptr %68, i64 32
  store i32 0, ptr %69, align 8
  %70 = tail call noundef ptr @palloc0(i64 noundef 24) #4
  store i32 325, ptr %70, align 4
  %71 = getelementptr inbounds nuw i8, ptr %70, i64 8
  store ptr %68, ptr %71, align 8
  %72 = getelementptr inbounds nuw i8, ptr %.045.lcssa.i, i64 16
  %73 = load ptr, ptr %72, align 8
  %74 = getelementptr inbounds nuw i8, ptr %73, i64 128
  %75 = load ptr, ptr %74, align 8
  %.not.i.i = icmp eq ptr %75, null
  br i1 %.not.i.i, label %list_length.exit.i, label %76

76:                                               ; preds = %._crit_edge67.i
  %77 = getelementptr inbounds nuw i8, ptr %75, i64 4
  %78 = load i32, ptr %77, align 4
  br label %list_length.exit.i

list_length.exit.i:                               ; preds = %76, %._crit_edge67.i
  %79 = phi i32 [ %78, %76 ], [ 0, %._crit_edge67.i ]
  %80 = getelementptr inbounds nuw i8, ptr %70, i64 16
  store i32 %79, ptr %80, align 8
  %81 = load ptr, ptr %72, align 8
  %82 = getelementptr inbounds nuw i8, ptr %81, i64 128
  %83 = load ptr, ptr %82, align 8
  %84 = getelementptr inbounds nuw i8, ptr %68, i64 12
  %85 = load i32, ptr %84, align 4
  %86 = tail call ptr @lappend_oid(ptr noundef %83, i32 noundef %85) #4
  %87 = load ptr, ptr %72, align 8
  %88 = getelementptr inbounds nuw i8, ptr %87, i64 128
  store ptr %86, ptr %88, align 8
  %89 = load ptr, ptr %8, align 8
  %90 = tail call ptr @lappend(ptr noundef %89, ptr noundef nonnull %70) #4
  store ptr %90, ptr %8, align 8
  br label %assign_param_for_var.exit

assign_param_for_var.exit:                        ; preds = %.split.i, %list_length.exit.i
  %.4.in.i = phi ptr [ %80, %list_length.exit.i ], [ %67, %.split.i ]
  %.4.i = load i32, ptr %.4.in.i, align 8
  %91 = tail call noundef ptr @palloc0(i64 noundef 28) #4
  store i32 8, ptr %91, align 4
  %92 = getelementptr inbounds nuw i8, ptr %91, i64 4
  store i32 1, ptr %92, align 4
  %93 = getelementptr inbounds nuw i8, ptr %91, i64 8
  store i32 %.4.i, ptr %93, align 4
  %94 = getelementptr inbounds nuw i8, ptr %1, i64 12
  %95 = load i32, ptr %94, align 4
  %96 = getelementptr inbounds nuw i8, ptr %91, i64 12
  store i32 %95, ptr %96, align 4
  %97 = getelementptr inbounds nuw i8, ptr %1, i64 16
  %98 = load i32, ptr %97, align 8
  %99 = getelementptr inbounds nuw i8, ptr %91, i64 16
  store i32 %98, ptr %99, align 4
  %100 = getelementptr inbounds nuw i8, ptr %1, i64 20
  %101 = load i32, ptr %100, align 4
  %102 = getelementptr inbounds nuw i8, ptr %91, i64 20
  store i32 %101, ptr %102, align 4
  %103 = getelementptr inbounds nuw i8, ptr %1, i64 48
  %104 = load i32, ptr %103, align 8
  %105 = getelementptr inbounds nuw i8, ptr %91, i64 24
  store i32 %104, ptr %105, align 4
  ret ptr %91
}